; Function Attrs: nounwind uwtable
define dso_local ptr @PyTuple_GetItem(ptr noundef readonly captures(none) %0, i64 noundef %1) local_unnamed_addr #0 {
  %3 = getelementptr i8, ptr %0, i64 8
  %.val8 = load ptr, ptr %3, align 8, !tbaa !99
  %4 = getelementptr i8, ptr %.val8, i64 168
  %.val9 = load i64, ptr %4, align 8, !tbaa !100
  %5 = and i64 %.val9, 67108864
  %.not = icmp eq i64 %5, 0
  br i1 %.not, label %6, label %7

6:                                                ; preds = %2
  tail call void @_PyErr_BadInternalCall(ptr noundef nonnull @.str, i32 noundef 100) #9
  br label %17

7:                                                ; preds = %2
  %8 = icmp slt i64 %1, 0
  br i1 %8, label %11, label %9

9:                                                ; preds = %7
  %10 = getelementptr i8, ptr %0, i64 16
  %.val = load i64, ptr %10, align 8, !tbaa !107
  %.not7 = icmp slt i64 %1, %.val
  br i1 %.not7, label %13, label %11

11:                                               ; preds = %9, %7
  %12 = load ptr, ptr @PyExc_IndexError, align 8, !tbaa !25
  tail call void @PyErr_SetString(ptr noundef %12, ptr noundef nonnull @.str.1) #9
  br label %17

13:                                               ; preds = %9
  %14 = getelementptr inbounds nuw i8, ptr %0, i64 24
  %15 = getelementptr [1 x ptr], ptr %14, i64 0, i64 %1
  %16 = load ptr, ptr %15, align 8, !tbaa !25
  br label %17

17:                                               ; preds = %13, %11, %6
  %.0 = phi ptr [ null, %11 ], [ %16, %13 ], [ null, %6 ]
  ret ptr %.0
}